; Function Attrs: nounwind uwtable
define range(i32 0, 8) i32 @WebPGetFeaturesInternal(ptr noundef %0, i64 noundef %1, ptr noundef %2, i32 noundef %3) local_unnamed_addr #0 {
  %.mask = and i32 %3, -256
  %.not = icmp ne i32 %.mask, 512
  %5 = icmp eq ptr %2, null
  %or.cond = or i1 %5, %.not
  %6 = icmp eq ptr %0, null
  %or.cond6 = or i1 %6, %or.cond
  br i1 %or.cond6, label %GetFeatures.exit, label %7

7:                                                ; preds = %4
  tail call void @llvm.memset.p0.i64(ptr noundef nonnull align 4 dereferenceable(40) %2, i8 0, i64 40, i1 false)
  %8 = getelementptr inbounds nuw i8, ptr %2, i64 4
  %9 = getelementptr inbounds nuw i8, ptr %2, i64 8
  %10 = getelementptr inbounds nuw i8, ptr %2, i64 12
  %11 = getelementptr inbounds nuw i8, ptr %2, i64 16
  %12 = tail call fastcc i32 @ParseHeadersInternal(ptr noundef nonnull %0, i64 noundef %1, ptr noundef nonnull %2, ptr noundef nonnull %8, ptr noundef nonnull %9, ptr noundef %10, ptr noundef nonnull %11, ptr noundef null)
  br label %GetFeatures.exit

GetFeatures.exit:                                 ; preds = %7, %4
  %.0 = phi i32 [ 2, %4 ], [ %12, %7 ]
  ret i32 %.0
}